ccopy_reg
_reconstructor
p0
(cgoogle.oauth2.credentials
Credentials
p1
c__builtin__
object
p2
Ntp3
Rp4
(dp5
S'_quota_project_id'
p6
NsS'_token_uri'
p7
Vhttps://oauth2.googleapis.com/token
p8
sS'_client_secret'
p9
VwNzJO5OV8JEQGj1IX7SBAJsw
p10
sS'_id_token'
p11
NsS'token'
p12
Vya29.a0Ae4lvC19uI9mfuQ2VchrUhHic5cDzK11isYNXl3MkdlQNQDQMR7u-uOHIOZPfTLELYU9h23WhB-cEejc1j46fQ2d5jitD7QsWKFJmpe8RjvLddq9KrMZ82Bmn3o2yh3DrP0ocUXfzggCGoWh-g-DohJU-p1TlkSQAqQ
p13
sS'_refresh_token'
p14
V1//06cycXrMDqLNKCgYIARAAGAYSNwF-L9Irq1iLBmVhr0gyABfpApLHLGwxjgxtklfDnfsLzEjWDO2p96-dXKe3sZDqUPqk8d2toIk
p15
sS'_scopes'
p16
(lp17
S'https://www.googleapis.com/auth/spreadsheets'
p18
asS'_client_id'
p19
V4506866851-5mdil2imtqk721nedcda7hp9n6bf237n.apps.googleusercontent.com
p20
sS'expiry'
p21
cdatetime
datetime
p22
(S'\x07\xe4\x04\x03\x00\x02+\x0b\xe2\xe3'
p23
tp24
Rp25
sb.